; Function Attrs: null_pointer_is_valid sspstrong uwtable
define internal void @dissect_gtpv2_ms_ts(ptr noundef %0, ptr readnone captures(none) %1, ptr noundef %2, ptr readnone captures(none) %3, i16 noundef zeroext %4, i8 noundef zeroext %5, i8 zeroext %6, ptr readnone captures(none) %7) #1 {
  %cond = icmp eq i8 %5, 32
  br i1 %cond, label %9, label %13

9:                                                ; preds = %8
  %10 = load i32, ptr @hf_gtpv2_origination_ts, align 4
  %11 = zext i16 %4 to i32
  %12 = tail call ptr @proto_tree_add_item(ptr noundef %2, i32 noundef %10, ptr noundef %0, i32 noundef 0, i32 noundef %11, i32 noundef 34)
  br label %16

13:                                               ; preds = %8
  %14 = load i32, ptr @hf_gtpv2_ms_ts, align 4
  %15 = tail call ptr @proto_tree_add_item(ptr noundef %2, i32 noundef %14, ptr noundef %0, i32 noundef 0, i32 noundef 6, i32 noundef 34)
  br label %16

16:                                               ; preds = %13, %9
  ret void
}